; Function Attrs: nounwind uwtable
define internal range(i32 0, 2) i32 @test_PACKET_get_4() #0 {
  %1 = tail call i32 @test_true(ptr noundef nonnull @.str.25, i32 noundef 70, ptr noundef nonnull @.str.34, i32 noundef 1) #6
  %.not = icmp eq i32 %1, 0
  br i1 %.not, label %14, label %PACKET_get_4.exit

PACKET_get_4.exit:                                ; preds = %0
  %2 = load i32, ptr @smbuf, align 16
  %3 = tail call i32 @test_true(ptr noundef nonnull @.str.25, i32 noundef 71, ptr noundef nonnull @.str.51, i32 noundef 1) #6
  %.not1 = icmp eq i32 %3, 0
  br i1 %.not1, label %14, label %4

4:                                                ; preds = %PACKET_get_4.exit
  %5 = zext i32 %2 to i64
  %6 = tail call i32 @test_ulong_eq(ptr noundef nonnull @.str.25, i32 noundef 72, ptr noundef nonnull @.str.47, ptr noundef nonnull @.str.52, i64 noundef %5, i64 noundef 134611970) #6
  %.not2 = icmp eq i32 %6, 0
  br i1 %.not2, label %14, label %PACKET_forward.exit

PACKET_forward.exit:                              ; preds = %4
  %7 = tail call i32 @test_true(ptr noundef nonnull @.str.25, i32 noundef 73, ptr noundef nonnull @.str.53, i32 noundef 1) #6
  %.not3 = icmp eq i32 %7, 0
  br i1 %.not3, label %14, label %PACKET_get_4.exit10

PACKET_get_4.exit10:                              ; preds = %PACKET_forward.exit
  %8 = load i32, ptr getelementptr inbounds nuw (i8, ptr @smbuf, i64 251), align 1
  %9 = tail call i32 @test_true(ptr noundef nonnull @.str.25, i32 noundef 74, ptr noundef nonnull @.str.51, i32 noundef 1) #6
  %.not4 = icmp eq i32 %9, 0
  br i1 %.not4, label %14, label %10

10:                                               ; preds = %PACKET_get_4.exit10
  %11 = zext i32 %8 to i64
  %12 = tail call i32 @test_ulong_eq(ptr noundef nonnull @.str.25, i32 noundef 75, ptr noundef nonnull @.str.47, ptr noundef nonnull @.str.54, i64 noundef %11, i64 noundef 4277992184) #6
  %.not5 = icmp eq i32 %12, 0
  br i1 %.not5, label %14, label %PACKET_get_4.exit13

PACKET_get_4.exit13:                              ; preds = %10
  %13 = tail call i32 @test_false(ptr noundef nonnull @.str.25, i32 noundef 76, ptr noundef nonnull @.str.51, i32 noundef 0) #6
  %.not6 = icmp ne i32 %13, 0
  %spec.select = zext i1 %.not6 to i32
  br label %14

14:                                               ; preds = %PACKET_get_4.exit13, %0, %PACKET_get_4.exit, %4, %PACKET_forward.exit, %PACKET_get_4.exit10, %10
  %.0 = phi i32 [ 0, %10 ], [ 0, %PACKET_get_4.exit10 ], [ 0, %PACKET_forward.exit ], [ 0, %4 ], [ 0, %PACKET_get_4.exit ], [ 0, %0 ], [ %spec.select, %PACKET_get_4.exit13 ]
  ret i32 %.0
}